target datalayout = "e-m:e-p270:32:32-p271:32:32-p272:64:64-i64:64-i128:128-f80:128-n8:16:32:64-S128"
target triple = "x86_64-pc-linux-gnu"

%struct.expert_field = type { i32, i32 }

@hf_alcap_pssiae_pr_type = internal global i32 0, align 4
@hf_alcap_pssiae_pr_id = internal global i32 0, align 4
@hf_alcap_pssiae_lb = internal global i32 0, align 4
@hf_alcap_pssiae_rc = internal global i32 0, align 4
@hf_alcap_pssiae_syn = internal global i32 0, align 4
@hf_alcap_pssiae_frm = internal global i32 0, align 4
@hf_alcap_pssiae_cmd = internal global i32 0, align 4
@hf_alcap_pssiae_mfr2 = internal global i32 0, align 4
@hf_alcap_pssiae_mfr1 = internal global i32 0, align 4
@hf_alcap_pssiae_dtmf = internal global i32 0, align 4
@hf_alcap_pssiae_cas = internal global i32 0, align 4
@hf_alcap_pssiae_fax = internal global i32 0, align 4
@hf_alcap_pssiae_pcm = internal global i32 0, align 4
@hf_alcap_pssiae_max_len = internal global i32 0, align 4
@hf_alcap_pssiae_oui = internal global i32 0, align 4
@ei_alcap_parameter_field_bad_length = internal global %struct.expert_field zeroinitializer, align 4

; Function Attrs: null_pointer_is_valid sspstrong uwtable
define internal ptr @dissect_fields_pssiae(ptr noundef %0, ptr noundef %1, ptr noundef %2, i32 noundef %3, i32 noundef %4, ptr noundef %5) #0 {
  %7 = alloca ptr, align 8
  %8 = alloca ptr, align 8
  %9 = alloca ptr, align 8
  %10 = alloca ptr, align 8
  %11 = alloca i32, align 4
  %12 = alloca i32, align 4
  %13 = alloca ptr, align 8
  store ptr %0, ptr %8, align 8
  store ptr %1, ptr %9, align 8
  store ptr %2, ptr %10, align 8
  store i32 %3, ptr %11, align 4
  store i32 %4, ptr %12, align 4
  store ptr %5, ptr %13, align 8
  %14 = load i32, ptr %12, align 4
  %15 = icmp ne i32 %14, 8
  br i1 %15, label %16, label %23

16:                                               ; preds = %6
  %17 = load ptr, ptr %10, align 8
  %18 = load ptr, ptr %8, align 8
  %19 = load ptr, ptr %9, align 8
  %20 = load i32, ptr %11, align 4
  %21 = load i32, ptr %12, align 4
  %22 = call ptr @proto_tree_add_expert(ptr noundef %17, ptr noundef %18, ptr noundef @ei_alcap_parameter_field_bad_length, ptr noundef %19, i32 noundef %20, i32 noundef %21)
  store ptr null, ptr %7, align 8
  br label %110

23:                                               ; preds = %6
  %24 = load ptr, ptr %10, align 8
  %25 = load i32, ptr @hf_alcap_pssiae_pr_type, align 4
  %26 = load ptr, ptr %9, align 8
  %27 = load i32, ptr %11, align 4
  %28 = call ptr @proto_tree_add_item(ptr noundef %24, i32 noundef %25, ptr noundef %26, i32 noundef %27, i32 noundef 1, i32 noundef 0)
  %29 = load ptr, ptr %10, align 8
  %30 = load i32, ptr @hf_alcap_pssiae_lb, align 4
  %31 = load ptr, ptr %9, align 8
  %32 = load i32, ptr %11, align 4
  %33 = call ptr @proto_tree_add_item(ptr noundef %29, i32 noundef %30, ptr noundef %31, i32 noundef %32, i32 noundef 1, i32 noundef 0)
  %34 = load ptr, ptr %10, align 8
  %35 = load i32, ptr @hf_alcap_pssiae_rc, align 4
  %36 = load ptr, ptr %9, align 8
  %37 = load i32, ptr %11, align 4
  %38 = call ptr @proto_tree_add_item(ptr noundef %34, i32 noundef %35, ptr noundef %36, i32 noundef %37, i32 noundef 1, i32 noundef 0)
  %39 = load ptr, ptr %10, align 8
  %40 = load i32, ptr @hf_alcap_pssiae_syn, align 4
  %41 = load ptr, ptr %9, align 8
  %42 = load i32, ptr %11, align 4
  %43 = call ptr @proto_tree_add_item(ptr noundef %39, i32 noundef %40, ptr noundef %41, i32 noundef %42, i32 noundef 1, i32 noundef 0)
  %44 = load ptr, ptr %10, align 8
  %45 = load i32, ptr @hf_alcap_pssiae_pr_id, align 4
  %46 = load ptr, ptr %9, align 8
  %47 = load i32, ptr %11, align 4
  %48 = add i32 %47, 1
  %49 = call ptr @proto_tree_add_item(ptr noundef %44, i32 noundef %45, ptr noundef %46, i32 noundef %48, i32 noundef 1, i32 noundef 0)
  %50 = load ptr, ptr %10, align 8
  %51 = load i32, ptr @hf_alcap_pssiae_frm, align 4
  %52 = load ptr, ptr %9, align 8
  %53 = load i32, ptr %11, align 4
  %54 = add i32 %53, 3
  %55 = call ptr @proto_tree_add_item(ptr noundef %50, i32 noundef %51, ptr noundef %52, i32 noundef %54, i32 noundef 1, i32 noundef 0)
  %56 = load ptr, ptr %10, align 8
  %57 = load i32, ptr @hf_alcap_pssiae_cmd, align 4
  %58 = load ptr, ptr %9, align 8
  %59 = load i32, ptr %11, align 4
  %60 = add i32 %59, 3
  %61 = call ptr @proto_tree_add_item(ptr noundef %56, i32 noundef %57, ptr noundef %58, i32 noundef %60, i32 noundef 1, i32 noundef 0)
  %62 = load ptr, ptr %10, align 8
  %63 = load i32, ptr @hf_alcap_pssiae_mfr2, align 4
  %64 = load ptr, ptr %9, align 8
  %65 = load i32, ptr %11, align 4
  %66 = add i32 %65, 3
  %67 = call ptr @proto_tree_add_item(ptr noundef %62, i32 noundef %63, ptr noundef %64, i32 noundef %66, i32 noundef 1, i32 noundef 0)
  %68 = load ptr, ptr %10, align 8
  %69 = load i32, ptr @hf_alcap_pssiae_mfr1, align 4
  %70 = load ptr, ptr %9, align 8
  %71 = load i32, ptr %11, align 4
  %72 = add i32 %71, 3
  %73 = call ptr @proto_tree_add_item(ptr noundef %68, i32 noundef %69, ptr noundef %70, i32 noundef %72, i32 noundef 1, i32 noundef 0)
  %74 = load ptr, ptr %10, align 8
  %75 = load i32, ptr @hf_alcap_pssiae_dtmf, align 4
  %76 = load ptr, ptr %9, align 8
  %77 = load i32, ptr %11, align 4
  %78 = add i32 %77, 3
  %79 = call ptr @proto_tree_add_item(ptr noundef %74, i32 noundef %75, ptr noundef %76, i32 noundef %78, i32 noundef 1, i32 noundef 0)
  %80 = load ptr, ptr %10, align 8
  %81 = load i32, ptr @hf_alcap_pssiae_cas, align 4
  %82 = load ptr, ptr %9, align 8
  %83 = load i32, ptr %11, align 4
  %84 = add i32 %83, 3
  %85 = call ptr @proto_tree_add_item(ptr noundef %80, i32 noundef %81, ptr noundef %82, i32 noundef %84, i32 noundef 1, i32 noundef 0)
  %86 = load ptr, ptr %10, align 8
  %87 = load i32, ptr @hf_alcap_pssiae_fax, align 4
  %88 = load ptr, ptr %9, align 8
  %89 = load i32, ptr %11, align 4
  %90 = add i32 %89, 3
  %91 = call ptr @proto_tree_add_item(ptr noundef %86, i32 noundef %87, ptr noundef %88, i32 noundef %90, i32 noundef 1, i32 noundef 0)
  %92 = load ptr, ptr %10, align 8
  %93 = load i32, ptr @hf_alcap_pssiae_pcm, align 4
  %94 = load ptr, ptr %9, align 8
  %95 = load i32, ptr %11, align 4
  %96 = add i32 %95, 3
  %97 = call ptr @proto_tree_add_item(ptr noundef %92, i32 noundef %93, ptr noundef %94, i32 noundef %96, i32 noundef 1, i32 noundef 0)
  %98 = load ptr, ptr %10, align 8
  %99 = load i32, ptr @hf_alcap_pssiae_max_len, align 4
  %100 = load ptr, ptr %9, align 8
  %101 = load i32, ptr %11, align 4
  %102 = add i32 %101, 4
  %103 = call ptr @proto_tree_add_item(ptr noundef %98, i32 noundef %99, ptr noundef %100, i32 noundef %102, i32 noundef 2, i32 noundef 0)
  %104 = load ptr, ptr %10, align 8
  %105 = load i32, ptr @hf_alcap_pssiae_oui, align 4
  %106 = load ptr, ptr %9, align 8
  %107 = load i32, ptr %11, align 4
  %108 = add i32 %107, 5
  %109 = call ptr @proto_tree_add_item(ptr noundef %104, i32 noundef %105, ptr noundef %106, i32 noundef %108, i32 noundef 3, i32 noundef 0)
  store ptr null, ptr %7, align 8
  br label %110

110:                                              ; preds = %23, %16
  %111 = load ptr, ptr %7, align 8
  ret ptr %111
}