; Function Attrs: null_pointer_is_valid sspstrong uwtable
define internal noalias noundef ptr @dissect_fields_pssiae(ptr noundef %0, ptr noundef %1, ptr noundef %2, i32 noundef %3, i32 noundef %4, ptr readnone captures(none) %5) #0 {
  %.not = icmp eq i32 %4, 8
  br i1 %.not, label %9, label %7

7:                                                ; preds = %6
  %8 = tail call ptr @proto_tree_add_expert(ptr noundef %2, ptr noundef %0, ptr noundef nonnull @ei_alcap_parameter_field_bad_length, ptr noundef %1, i32 noundef %3, i32 noundef %4)
  br label %44

9:                                                ; preds = %6
  %10 = load i32, ptr @hf_alcap_pssiae_pr_type, align 4
  %11 = tail call ptr @proto_tree_add_item(ptr noundef %2, i32 noundef %10, ptr noundef %1, i32 noundef %3, i32 noundef 1, i32 noundef 0)
  %12 = load i32, ptr @hf_alcap_pssiae_lb, align 4
  %13 = tail call ptr @proto_tree_add_item(ptr noundef %2, i32 noundef %12, ptr noundef %1, i32 noundef %3, i32 noundef 1, i32 noundef 0)
  %14 = load i32, ptr @hf_alcap_pssiae_rc, align 4
  %15 = tail call ptr @proto_tree_add_item(ptr noundef %2, i32 noundef %14, ptr noundef %1, i32 noundef %3, i32 noundef 1, i32 noundef 0)
  %16 = load i32, ptr @hf_alcap_pssiae_syn, align 4
  %17 = tail call ptr @proto_tree_add_item(ptr noundef %2, i32 noundef %16, ptr noundef %1, i32 noundef %3, i32 noundef 1, i32 noundef 0)
  %18 = load i32, ptr @hf_alcap_pssiae_pr_id, align 4
  %19 = add i32 %3, 1
  %20 = tail call ptr @proto_tree_add_item(ptr noundef %2, i32 noundef %18, ptr noundef %1, i32 noundef %19, i32 noundef 1, i32 noundef 0)
  %21 = load i32, ptr @hf_alcap_pssiae_frm, align 4
  %22 = add i32 %3, 3
  %23 = tail call ptr @proto_tree_add_item(ptr noundef %2, i32 noundef %21, ptr noundef %1, i32 noundef %22, i32 noundef 1, i32 noundef 0)
  %24 = load i32, ptr @hf_alcap_pssiae_cmd, align 4
  %25 = tail call ptr @proto_tree_add_item(ptr noundef %2, i32 noundef %24, ptr noundef %1, i32 noundef %22, i32 noundef 1, i32 noundef 0)
  %26 = load i32, ptr @hf_alcap_pssiae_mfr2, align 4
  %27 = tail call ptr @proto_tree_add_item(ptr noundef %2, i32 noundef %26, ptr noundef %1, i32 noundef %22, i32 noundef 1, i32 noundef 0)
  %28 = load i32, ptr @hf_alcap_pssiae_mfr1, align 4
  %29 = tail call ptr @proto_tree_add_item(ptr noundef %2, i32 noundef %28, ptr noundef %1, i32 noundef %22, i32 noundef 1, i32 noundef 0)
  %30 = load i32, ptr @hf_alcap_pssiae_dtmf, align 4
  %31 = tail call ptr @proto_tree_add_item(ptr noundef %2, i32 noundef %30, ptr noundef %1, i32 noundef %22, i32 noundef 1, i32 noundef 0)
  %32 = load i32, ptr @hf_alcap_pssiae_cas, align 4
  %33 = tail call ptr @proto_tree_add_item(ptr noundef %2, i32 noundef %32, ptr noundef %1, i32 noundef %22, i32 noundef 1, i32 noundef 0)
  %34 = load i32, ptr @hf_alcap_pssiae_fax, align 4
  %35 = tail call ptr @proto_tree_add_item(ptr noundef %2, i32 noundef %34, ptr noundef %1, i32 noundef %22, i32 noundef 1, i32 noundef 0)
  %36 = load i32, ptr @hf_alcap_pssiae_pcm, align 4
  %37 = tail call ptr @proto_tree_add_item(ptr noundef %2, i32 noundef %36, ptr noundef %1, i32 noundef %22, i32 noundef 1, i32 noundef 0)
  %38 = load i32, ptr @hf_alcap_pssiae_max_len, align 4
  %39 = add i32 %3, 4
  %40 = tail call ptr @proto_tree_add_item(ptr noundef %2, i32 noundef %38, ptr noundef %1, i32 noundef %39, i32 noundef 2, i32 noundef 0)
  %41 = load i32, ptr @hf_alcap_pssiae_oui, align 4
  %42 = add i32 %3, 5
  %43 = tail call ptr @proto_tree_add_item(ptr noundef %2, i32 noundef %41, ptr noundef %1, i32 noundef %42, i32 noundef 3, i32 noundef 0)
  br label %44

44:                                               ; preds = %9, %7
  ret ptr null
}